target datalayout = "e-m:e-p270:32:32-p271:32:32-p272:64:64-i64:64-i128:128-f80:128-n8:16:32:64-S128"
target triple = "x86_64-unknown-linux-gnu"

%"class.icu_75::UCharsTrieElement" = type { i32, i32 }
%"class.icu_75::UnicodeString" = type { %"class.icu_75::Replaceable", %"union.icu_75::UnicodeString::StackBufferOrFields" }
%"class.icu_75::Replaceable" = type { %"class.icu_75::UObject" }
%"class.icu_75::UObject" = type { ptr }
%"union.icu_75::UnicodeString::StackBufferOrFields" = type { %struct.anon.0, [32 x i8] }
%struct.anon.0 = type { i16, i32, i32, ptr }
%struct.anon = type { i16, [27 x i16] }

; Function Attrs: mustprogress nounwind uwtable
define linkonce_odr noundef ptr @_ZNK6icu_7513UnicodeString13getArrayStartEv(ptr noundef nonnull align 8 dereferenceable(64) %this) #1 comdat align 2 {
entry:
  %this.addr = alloca ptr, align 8
  store ptr %this, ptr %this.addr, align 8
  %this1 = load ptr, ptr %this.addr, align 8
  %fUnion = getelementptr inbounds %"class.icu_75::UnicodeString", ptr %this1, i32 0, i32 1
  %fLengthAndFlags = getelementptr inbounds %struct.anon.0, ptr %fUnion, i32 0, i32 0
  %0 = load i16, ptr %fLengthAndFlags, align 8
  %conv = sext i16 %0 to i32
  %and = and i32 %conv, 2
  %tobool = icmp ne i32 %and, 0
  br i1 %tobool, label %cond.true, label %cond.false

cond.true:                                        ; preds = %entry
  %fUnion2 = getelementptr inbounds %"class.icu_75::UnicodeString", ptr %this1, i32 0, i32 1
  %fBuffer = getelementptr inbounds %struct.anon, ptr %fUnion2, i32 0, i32 1
  %arraydecay = getelementptr inbounds [27 x i16], ptr %fBuffer, i64 0, i64 0
  br label %cond.end

cond.false:                                       ; preds = %entry
  %fUnion3 = getelementptr inbounds %"class.icu_75::UnicodeString", ptr %this1, i32 0, i32 1
  %fArray = getelementptr inbounds %struct.anon.0, ptr %fUnion3, i32 0, i32 3
  %1 = load ptr, ptr %fArray, align 8
  br label %cond.end

cond.end:                                         ; preds = %cond.false, %cond.true
  %cond = phi ptr [ %arraydecay, %cond.true ], [ %1, %cond.false ]
  ret ptr %cond
}

; Function Attrs: mustprogress uwtable
define linkonce_odr void @_ZNK6icu_7513UnicodeString10pinIndicesERiS1_(ptr noundef nonnull align 8 dereferenceable(64) %this, ptr noundef nonnull align 4 dereferenceable(4) %start, ptr noundef nonnull align 4 dereferenceable(4) %_length) #0 comdat align 2 {
entry:
  %this.addr = alloca ptr, align 8
  %start.addr = alloca ptr, align 8
  %_length.addr = alloca ptr, align 8
  %len = alloca i32, align 4
  store ptr %this, ptr %this.addr, align 8
  store ptr %start, ptr %start.addr, align 8
  store ptr %_length, ptr %_length.addr, align 8
  %this1 = load ptr, ptr %this.addr, align 8
  %call = call noundef i32 @_ZNK6icu_7513UnicodeString6lengthEv(ptr noundef nonnull align 8 dereferenceable(64) %this1)
  store i32 %call, ptr %len, align 4
  %0 = load ptr, ptr %start.addr, align 8
  %1 = load i32, ptr %0, align 4
  %cmp = icmp slt i32 %1, 0
  br i1 %cmp, label %if.then, label %if.else

if.then:                                          ; preds = %entry
  %2 = load ptr, ptr %start.addr, align 8
  store i32 0, ptr %2, align 4
  br label %if.end4

if.else:                                          ; preds = %entry
  %3 = load ptr, ptr %start.addr, align 8
  %4 = load i32, ptr %3, align 4
  %5 = load i32, ptr %len, align 4
  %cmp2 = icmp sgt i32 %4, %5
  br i1 %cmp2, label %if.then3, label %if.end

if.then3:                                         ; preds = %if.else
  %6 = load i32, ptr %len, align 4
  %7 = load ptr, ptr %start.addr, align 8
  store i32 %6, ptr %7, align 4
  br label %if.end

if.end:                                           ; preds = %if.then3, %if.else
  br label %if.end4

if.end4:                                          ; preds = %if.end, %if.then
  %8 = load ptr, ptr %_length.addr, align 8
  %9 = load i32, ptr %8, align 4
  %cmp5 = icmp slt i32 %9, 0
  br i1 %cmp5, label %if.then6, label %if.else7

if.then6:                                         ; preds = %if.end4
  %10 = load ptr, ptr %_length.addr, align 8
  store i32 0, ptr %10, align 4
  br label %if.end12

if.else7:                                         ; preds = %if.end4
  %11 = load ptr, ptr %_length.addr, align 8
  %12 = load i32, ptr %11, align 4
  %13 = load i32, ptr %len, align 4
  %14 = load ptr, ptr %start.addr, align 8
  %15 = load i32, ptr %14, align 4
  %sub = sub nsw i32 %13, %15
  %cmp8 = icmp sgt i32 %12, %sub
  br i1 %cmp8, label %if.then9, label %if.end11

if.then9:                                         ; preds = %if.else7
  %16 = load i32, ptr %len, align 4
  %17 = load ptr, ptr %start.addr, align 8
  %18 = load i32, ptr %17, align 4
  %sub10 = sub nsw i32 %16, %18
  %19 = load ptr, ptr %_length.addr, align 8
  store i32 %sub10, ptr %19, align 4
  br label %if.end11

if.end11:                                         ; preds = %if.then9, %if.else7
  br label %if.end12

if.end12:                                         ; preds = %if.end11, %if.then6
  ret void
}

; Function Attrs: mustprogress nounwind uwtable
define linkonce_odr noundef signext i8 @_ZNK6icu_7513UnicodeString7isBogusEv(ptr noundef nonnull align 8 dereferenceable(64) %this) #1 comdat align 2 {
entry:
  %this.addr = alloca ptr, align 8
  store ptr %this, ptr %this.addr, align 8
  %this1 = load ptr, ptr %this.addr, align 8
  %fUnion = getelementptr inbounds %"class.icu_75::UnicodeString", ptr %this1, i32 0, i32 1
  %fLengthAndFlags = getelementptr inbounds %struct.anon.0, ptr %fUnion, i32 0, i32 0
  %0 = load i16, ptr %fLengthAndFlags, align 8
  %conv = sext i16 %0 to i32
  %and = and i32 %conv, 1
  %conv2 = trunc i32 %and to i8
  ret i8 %conv2
}

; Function Attrs: mustprogress nounwind uwtable
define linkonce_odr noundef i32 @_ZNK6icu_7513UnicodeString14getShortLengthEv(ptr noundef nonnull align 8 dereferenceable(64) %this) #1 comdat align 2 {
entry:
  %this.addr = alloca ptr, align 8
  store ptr %this, ptr %this.addr, align 8
  %this1 = load ptr, ptr %this.addr, align 8
  %fUnion = getelementptr inbounds %"class.icu_75::UnicodeString", ptr %this1, i32 0, i32 1
  %fLengthAndFlags = getelementptr inbounds %struct.anon.0, ptr %fUnion, i32 0, i32 0
  %0 = load i16, ptr %fLengthAndFlags, align 8
  %conv = sext i16 %0 to i32
  %shr = ashr i32 %conv, 5
  ret i32 %shr
}

; Function Attrs: mustprogress nounwind uwtable
define linkonce_odr noundef signext i8 @_ZNK6icu_7513UnicodeString14hasShortLengthEv(ptr noundef nonnull align 8 dereferenceable(64) %this) #1 comdat align 2 {
entry:
  %this.addr = alloca ptr, align 8
  store ptr %this, ptr %this.addr, align 8
  %this1 = load ptr, ptr %this.addr, align 8
  %fUnion = getelementptr inbounds %"class.icu_75::UnicodeString", ptr %this1, i32 0, i32 1
  %fLengthAndFlags = getelementptr inbounds %struct.anon.0, ptr %fUnion, i32 0, i32 0
  %0 = load i16, ptr %fLengthAndFlags, align 8
  %conv = sext i16 %0 to i32
  %cmp = icmp sge i32 %conv, 0
  %conv2 = zext i1 %cmp to i8
  ret i8 %conv2
}

; Function Attrs: mustprogress uwtable
define linkonce_odr noundef zeroext i16 @_ZNK6icu_7513UnicodeString8doCharAtEi(ptr noundef nonnull align 8 dereferenceable(64) %this, i32 noundef %offset) #0 comdat align 2 {
entry:
  %retval = alloca i16, align 2
  %this.addr = alloca ptr, align 8
  %offset.addr = alloca i32, align 4
  store ptr %this, ptr %this.addr, align 8
  store i32 %offset, ptr %offset.addr, align 4
  %this1 = load ptr, ptr %this.addr, align 8
  %0 = load i32, ptr %offset.addr, align 4
  %call = call noundef i32 @_ZNK6icu_7513UnicodeString6lengthEv(ptr noundef nonnull align 8 dereferenceable(64) %this1)
  %cmp = icmp ult i32 %0, %call
  br i1 %cmp, label %if.then, label %if.else

if.then:                                          ; preds = %entry
  %call2 = call noundef ptr @_ZNK6icu_7513UnicodeString13getArrayStartEv(ptr noundef nonnull align 8 dereferenceable(64) %this1)
  %1 = load i32, ptr %offset.addr, align 4
  %idxprom = sext i32 %1 to i64
  %arrayidx = getelementptr inbounds i16, ptr %call2, i64 %idxprom
  %2 = load i16, ptr %arrayidx, align 2
  store i16 %2, ptr %retval, align 2
  br label %return

if.else:                                          ; preds = %entry
  store i16 -1, ptr %retval, align 2
  br label %return

return:                                           ; preds = %if.else, %if.then
  %3 = load i16, ptr %retval, align 2
  ret i16 %3
}

; Function Attrs: mustprogress uwtable
define linkonce_odr noundef signext i8 @_ZNK6icu_7513UnicodeString9doCompareEiiRKS0_ii(ptr noundef nonnull align 8 dereferenceable(64) %this, i32 noundef %start, i32 noundef %thisLength, ptr noundef nonnull align 8 dereferenceable(64) %srcText, i32 noundef %srcStart, i32 noundef %srcLength) #0 comdat align 2 {
entry:
  %retval = alloca i8, align 1
  %this.addr = alloca ptr, align 8
  %start.addr = alloca i32, align 4
  %thisLength.addr = alloca i32, align 4
  %srcText.addr = alloca ptr, align 8
  %srcStart.addr = alloca i32, align 4
  %srcLength.addr = alloca i32, align 4
  store ptr %this, ptr %this.addr, align 8
  store i32 %start, ptr %start.addr, align 4
  store i32 %thisLength, ptr %thisLength.addr, align 4
  store ptr %srcText, ptr %srcText.addr, align 8
  store i32 %srcStart, ptr %srcStart.addr, align 4
  store i32 %srcLength, ptr %srcLength.addr, align 4
  %this1 = load ptr, ptr %this.addr, align 8
  %0 = load ptr, ptr %srcText.addr, align 8
  %call = call noundef signext i8 @_ZNK6icu_7513UnicodeString7isBogusEv(ptr noundef nonnull align 8 dereferenceable(64) %0)
  %tobool = icmp ne i8 %call, 0
  br i1 %tobool, label %if.then, label %if.else

if.then:                                          ; preds = %entry
  %call2 = call noundef signext i8 @_ZNK6icu_7513UnicodeString7isBogusEv(ptr noundef nonnull align 8 dereferenceable(64) %this1)
  %tobool3 = icmp ne i8 %call2, 0
  %lnot = xor i1 %tobool3, true
  %conv = zext i1 %lnot to i8
  store i8 %conv, ptr %retval, align 1
  br label %return

if.else:                                          ; preds = %entry
  %1 = load ptr, ptr %srcText.addr, align 8
  call void @_ZNK6icu_7513UnicodeString10pinIndicesERiS1_(ptr noundef nonnull align 8 dereferenceable(64) %1, ptr noundef nonnull align 4 dereferenceable(4) %srcStart.addr, ptr noundef nonnull align 4 dereferenceable(4) %srcLength.addr)
  %2 = load i32, ptr %start.addr, align 4
  %3 = load i32, ptr %thisLength.addr, align 4
  %4 = load ptr, ptr %srcText.addr, align 8
  %call4 = call noundef ptr @_ZNK6icu_7513UnicodeString13getArrayStartEv(ptr noundef nonnull align 8 dereferenceable(64) %4)
  %5 = load i32, ptr %srcStart.addr, align 4
  %6 = load i32, ptr %srcLength.addr, align 4
  %call5 = call noundef signext i8 @_ZNK6icu_7513UnicodeString9doCompareEiiPKDsii(ptr noundef nonnull align 8 dereferenceable(64) %this1, i32 noundef %2, i32 noundef %3, ptr noundef %call4, i32 noundef %5, i32 noundef %6)
  store i8 %call5, ptr %retval, align 1
  br label %return

return:                                           ; preds = %if.else, %if.then
  %7 = load i8, ptr %retval, align 1
  ret i8 %7
}

; Function Attrs: mustprogress uwtable
define linkonce_odr noundef i32 @_ZNK6icu_7513UnicodeString6lengthEv(ptr noundef nonnull align 8 dereferenceable(64) %this) #0 comdat align 2 {
entry:
  %this.addr = alloca ptr, align 8
  store ptr %this, ptr %this.addr, align 8
  %this1 = load ptr, ptr %this.addr, align 8
  %call = call noundef signext i8 @_ZNK6icu_7513UnicodeString14hasShortLengthEv(ptr noundef nonnull align 8 dereferenceable(64) %this1)
  %tobool = icmp ne i8 %call, 0
  br i1 %tobool, label %cond.true, label %cond.false

cond.true:                                        ; preds = %entry
  %call2 = call noundef i32 @_ZNK6icu_7513UnicodeString14getShortLengthEv(ptr noundef nonnull align 8 dereferenceable(64) %this1)
  br label %cond.end

cond.false:                                       ; preds = %entry
  %fUnion = getelementptr inbounds %"class.icu_75::UnicodeString", ptr %this1, i32 0, i32 1
  %fLength = getelementptr inbounds %struct.anon.0, ptr %fUnion, i32 0, i32 1
  %0 = load i32, ptr %fLength, align 4
  br label %cond.end

cond.end:                                         ; preds = %cond.false, %cond.true
  %cond = phi i32 [ %call2, %cond.true ], [ %0, %cond.false ]
  ret i32 %cond
}

; Function Attrs: mustprogress uwtable
define linkonce_odr noundef zeroext i16 @_ZNK6icu_7513UnicodeStringixEi(ptr noundef nonnull align 8 dereferenceable(64) %this, i32 noundef %offset) #0 comdat align 2 {
entry:
  %this.addr = alloca ptr, align 8
  %offset.addr = alloca i32, align 4
  store ptr %this, ptr %this.addr, align 8
  store i32 %offset, ptr %offset.addr, align 4
  %this1 = load ptr, ptr %this.addr, align 8
  %0 = load i32, ptr %offset.addr, align 4
  %call = call noundef zeroext i16 @_ZNK6icu_7513UnicodeString8doCharAtEi(ptr noundef nonnull align 8 dereferenceable(64) %this1, i32 noundef %0)
  ret i16 %call
}

; Function Attrs: mustprogress uwtable
define linkonce_odr noundef signext i8 @_ZNK6icu_7513UnicodeString7compareERKS0_(ptr noundef nonnull align 8 dereferenceable(64) %this, ptr noundef nonnull align 8 dereferenceable(64) %text) #0 comdat align 2 {
entry:
  %this.addr = alloca ptr, align 8
  %text.addr = alloca ptr, align 8
  store ptr %this, ptr %this.addr, align 8
  store ptr %text, ptr %text.addr, align 8
  %this1 = load ptr, ptr %this.addr, align 8
  %call = call noundef i32 @_ZNK6icu_7513UnicodeString6lengthEv(ptr noundef nonnull align 8 dereferenceable(64) %this1)
  %0 = load ptr, ptr %text.addr, align 8
  %1 = load ptr, ptr %text.addr, align 8
  %call2 = call noundef i32 @_ZNK6icu_7513UnicodeString6lengthEv(ptr noundef nonnull align 8 dereferenceable(64) %1)
  %call3 = call noundef signext i8 @_ZNK6icu_7513UnicodeString9doCompareEiiRKS0_ii(ptr noundef nonnull align 8 dereferenceable(64) %this1, i32 noundef 0, i32 noundef %call, ptr noundef nonnull align 8 dereferenceable(64) %0, i32 noundef 0, i32 noundef %call2)
  ret i8 %call3
}

; Function Attrs: mustprogress uwtable
define linkonce_odr void @_ZNK6icu_7517UCharsTrieElement9getStringERKNS_13UnicodeStringE(ptr noalias sret(%"class.icu_75::UnicodeString") align 8 %agg.result, ptr noundef nonnull align 4 dereferenceable(8) %this, ptr noundef nonnull align 8 dereferenceable(64) %strings) #0 comdat align 2 {
entry:
  %result.ptr = alloca ptr, align 8
  %this.addr = alloca ptr, align 8
  %strings.addr = alloca ptr, align 8
  %length = alloca i32, align 4
  store ptr %agg.result, ptr %result.ptr, align 8
  store ptr %this, ptr %this.addr, align 8
  store ptr %strings, ptr %strings.addr, align 8
  %this1 = load ptr, ptr %this.addr, align 8
  %0 = load ptr, ptr %strings.addr, align 8
  %stringOffset = getelementptr inbounds %"class.icu_75::UCharsTrieElement", ptr %this1, i32 0, i32 0
  %1 = load i32, ptr %stringOffset, align 4
  %call = call noundef zeroext i16 @_ZNK6icu_7513UnicodeStringixEi(ptr noundef nonnull align 8 dereferenceable(64) %0, i32 noundef %1)
  %conv = zext i16 %call to i32
  store i32 %conv, ptr %length, align 4
  %2 = load ptr, ptr %strings.addr, align 8
  %stringOffset2 = getelementptr inbounds %"class.icu_75::UCharsTrieElement", ptr %this1, i32 0, i32 0
  %3 = load i32, ptr %stringOffset2, align 4
  %add = add nsw i32 %3, 1
  %4 = load i32, ptr %length, align 4
  call void @_ZNK6icu_7513UnicodeString13tempSubStringEii(ptr sret(%"class.icu_75::UnicodeString") align 8 %agg.result, ptr noundef nonnull align 8 dereferenceable(64) %2, i32 noundef %add, i32 noundef %4)
  ret void
}

; Function Attrs: mustprogress uwtable
define noundef i32 @_ZNK6icu_7517UCharsTrieElement15compareStringToERKS0_RKNS_13UnicodeStringE(ptr noundef nonnull align 4 dereferenceable(8) %this, ptr noundef nonnull align 4 dereferenceable(8) %other, ptr noundef nonnull align 8 dereferenceable(64) %strings) #0 align 2 personality ptr @__gxx_personality_v0 {
entry:
  %this.addr = alloca ptr, align 8
  %other.addr = alloca ptr, align 8
  %strings.addr = alloca ptr, align 8
  %ref.tmp = alloca %"class.icu_75::UnicodeString", align 8
  %ref.tmp2 = alloca %"class.icu_75::UnicodeString", align 8
  %exn.slot = alloca ptr, align 8
  %ehselector.slot = alloca i32, align 4
  store ptr %this, ptr %this.addr, align 8
  store ptr %other, ptr %other.addr, align 8
  store ptr %strings, ptr %strings.addr, align 8
  %this1 = load ptr, ptr %this.addr, align 8
  %0 = load ptr, ptr %strings.addr, align 8
  call void @_ZNK6icu_7517UCharsTrieElement9getStringERKNS_13UnicodeStringE(ptr sret(%"class.icu_75::UnicodeString") align 8 %ref.tmp, ptr noundef nonnull align 4 dereferenceable(8) %this1, ptr noundef nonnull align 8 dereferenceable(64) %0)
  %1 = load ptr, ptr %other.addr, align 8
  %2 = load ptr, ptr %strings.addr, align 8
  invoke void @_ZNK6icu_7517UCharsTrieElement9getStringERKNS_13UnicodeStringE(ptr sret(%"class.icu_75::UnicodeString") align 8 %ref.tmp2, ptr noundef nonnull align 4 dereferenceable(8) %1, ptr noundef nonnull align 8 dereferenceable(64) %2)
          to label %invoke.cont unwind label %lpad

invoke.cont:                                      ; preds = %entry
  %call = invoke noundef signext i8 @_ZNK6icu_7513UnicodeString7compareERKS0_(ptr noundef nonnull align 8 dereferenceable(64) %ref.tmp, ptr noundef nonnull align 8 dereferenceable(64) %ref.tmp2)
          to label %invoke.cont4 unwind label %lpad3

invoke.cont4:                                     ; preds = %invoke.cont
  %conv = sext i8 %call to i32
  call void @_ZN6icu_7513UnicodeStringD1Ev(ptr noundef nonnull align 8 dereferenceable(64) %ref.tmp2) #8
  call void @_ZN6icu_7513UnicodeStringD1Ev(ptr noundef nonnull align 8 dereferenceable(64) %ref.tmp) #8
  ret i32 %conv

lpad:                                             ; preds = %entry
  %3 = landingpad { ptr, i32 }
          cleanup
  %4 = extractvalue { ptr, i32 } %3, 0
  store ptr %4, ptr %exn.slot, align 8
  %5 = extractvalue { ptr, i32 } %3, 1
  store i32 %5, ptr %ehselector.slot, align 4
  br label %ehcleanup

lpad3:                                            ; preds = %invoke.cont
  %6 = landingpad { ptr, i32 }
          cleanup
  %7 = extractvalue { ptr, i32 } %6, 0
  store ptr %7, ptr %exn.slot, align 8
  %8 = extractvalue { ptr, i32 } %6, 1
  store i32 %8, ptr %ehselector.slot, align 4
  call void @_ZN6icu_7513UnicodeStringD1Ev(ptr noundef nonnull align 8 dereferenceable(64) %ref.tmp2) #8
  br label %ehcleanup

ehcleanup:                                        ; preds = %lpad3, %lpad
  call void @_ZN6icu_7513UnicodeStringD1Ev(ptr noundef nonnull align 8 dereferenceable(64) %ref.tmp) #8
  br label %eh.resume

eh.resume:                                        ; preds = %ehcleanup
  %exn = load ptr, ptr %exn.slot, align 8
  %sel = load i32, ptr %ehselector.slot, align 4
  %lpad.val = insertvalue { ptr, i32 } poison, ptr %exn, 0
  %lpad.val5 = insertvalue { ptr, i32 } %lpad.val, i32 %sel, 1
  resume { ptr, i32 } %lpad.val5
}