; Function Attrs: mustprogress uwtable
define noundef i32 @_ZNK6icu_7517UCharsTrieElement15compareStringToERKS0_RKNS_13UnicodeStringE(ptr nocapture noundef nonnull readonly align 4 dereferenceable(8) %this, ptr nocapture noundef nonnull readonly align 4 dereferenceable(8) %other, ptr noundef nonnull align 8 dereferenceable(64) %strings) local_unnamed_addr #0 align 2 personality ptr @__gxx_personality_v0 {
entry:
  %ref.tmp = alloca %"class.icu_75::UnicodeString", align 8
  %ref.tmp2 = alloca %"class.icu_75::UnicodeString", align 8
  %0 = load i32, ptr %this, align 4, !noalias !4
  %fUnion.i.i.i.i.i = getelementptr inbounds i8, ptr %strings, i64 8
  %1 = load i16, ptr %fUnion.i.i.i.i.i, align 8, !noalias !4
  %cmp.i.i.i.i.i = icmp slt i16 %1, 0
  %2 = ashr i16 %1, 5
  %shr.i.i.i.i.i = sext i16 %2 to i32
  %fLength.i.i.i.i = getelementptr inbounds i8, ptr %strings, i64 12
  %3 = load i32, ptr %fLength.i.i.i.i, align 4, !noalias !4
  %cond.i.i.i.i = select i1 %cmp.i.i.i.i.i, i32 %3, i32 %shr.i.i.i.i.i
  %cmp.i.i.i = icmp ugt i32 %cond.i.i.i.i, %0
  br i1 %cmp.i.i.i, label %if.then.i.i.i, label %_ZNK6icu_7517UCharsTrieElement9getStringERKNS_13UnicodeStringE.exit

if.then.i.i.i:                                    ; preds = %entry
  %4 = and i16 %1, 2
  %tobool.not.i.i.i.i = icmp eq i16 %4, 0
  %fBuffer.i.i.i.i = getelementptr inbounds i8, ptr %strings, i64 10
  %fArray.i.i.i.i = getelementptr inbounds i8, ptr %strings, i64 24
  %5 = load ptr, ptr %fArray.i.i.i.i, align 8, !noalias !4
  %cond.i2.i.i.i = select i1 %tobool.not.i.i.i.i, ptr %5, ptr %fBuffer.i.i.i.i
  %idxprom.i.i.i = sext i32 %0 to i64
  %arrayidx.i.i.i = getelementptr inbounds i16, ptr %cond.i2.i.i.i, i64 %idxprom.i.i.i
  %6 = load i16, ptr %arrayidx.i.i.i, align 2, !noalias !4
  %7 = zext i16 %6 to i32
  br label %_ZNK6icu_7517UCharsTrieElement9getStringERKNS_13UnicodeStringE.exit

_ZNK6icu_7517UCharsTrieElement9getStringERKNS_13UnicodeStringE.exit: ; preds = %entry, %if.then.i.i.i
  %retval.0.i.i.i = phi i32 [ %7, %if.then.i.i.i ], [ 65535, %entry ]
  %add.i = add nsw i32 %0, 1
  call void @_ZNK6icu_7513UnicodeString13tempSubStringEii(ptr nonnull sret(%"class.icu_75::UnicodeString") align 8 %ref.tmp, ptr noundef nonnull align 8 dereferenceable(64) %strings, i32 noundef %add.i, i32 noundef %retval.0.i.i.i)
  %8 = load i32, ptr %other, align 4, !noalias !7
  %9 = load i16, ptr %fUnion.i.i.i.i.i, align 8, !noalias !7
  %cmp.i.i.i.i.i4 = icmp slt i16 %9, 0
  %10 = ashr i16 %9, 5
  %shr.i.i.i.i.i5 = sext i16 %10 to i32
  %11 = load i32, ptr %fLength.i.i.i.i, align 4, !noalias !7
  %cond.i.i.i.i7 = select i1 %cmp.i.i.i.i.i4, i32 %11, i32 %shr.i.i.i.i.i5
  %cmp.i.i.i8 = icmp ugt i32 %cond.i.i.i.i7, %8
  br i1 %cmp.i.i.i8, label %if.then.i.i.i11, label %_ZNK6icu_7513UnicodeStringixEi.exit.i

if.then.i.i.i11:                                  ; preds = %_ZNK6icu_7517UCharsTrieElement9getStringERKNS_13UnicodeStringE.exit
  %12 = and i16 %9, 2
  %tobool.not.i.i.i.i12 = icmp eq i16 %12, 0
  %fBuffer.i.i.i.i13 = getelementptr inbounds i8, ptr %strings, i64 10
  %fArray.i.i.i.i14 = getelementptr inbounds i8, ptr %strings, i64 24
  %13 = load ptr, ptr %fArray.i.i.i.i14, align 8, !noalias !7
  %cond.i2.i.i.i15 = select i1 %tobool.not.i.i.i.i12, ptr %13, ptr %fBuffer.i.i.i.i13
  %idxprom.i.i.i16 = sext i32 %8 to i64
  %arrayidx.i.i.i17 = getelementptr inbounds i16, ptr %cond.i2.i.i.i15, i64 %idxprom.i.i.i16
  %14 = load i16, ptr %arrayidx.i.i.i17, align 2, !noalias !7
  %15 = zext i16 %14 to i32
  br label %_ZNK6icu_7513UnicodeStringixEi.exit.i

_ZNK6icu_7513UnicodeStringixEi.exit.i:            ; preds = %if.then.i.i.i11, %_ZNK6icu_7517UCharsTrieElement9getStringERKNS_13UnicodeStringE.exit
  %retval.0.i.i.i9 = phi i32 [ %15, %if.then.i.i.i11 ], [ 65535, %_ZNK6icu_7517UCharsTrieElement9getStringERKNS_13UnicodeStringE.exit ]
  %add.i10 = add nsw i32 %8, 1
  invoke void @_ZNK6icu_7513UnicodeString13tempSubStringEii(ptr nonnull sret(%"class.icu_75::UnicodeString") align 8 %ref.tmp2, ptr noundef nonnull align 8 dereferenceable(64) %strings, i32 noundef %add.i10, i32 noundef %retval.0.i.i.i9)
          to label %invoke.cont unwind label %lpad

invoke.cont:                                      ; preds = %_ZNK6icu_7513UnicodeStringixEi.exit.i
  %fUnion.i.i.i = getelementptr inbounds i8, ptr %ref.tmp, i64 8
  %16 = load i16, ptr %fUnion.i.i.i, align 8
  %fUnion.i.i2.i = getelementptr inbounds i8, ptr %ref.tmp2, i64 8
  %17 = load i16, ptr %fUnion.i.i2.i, align 8
  %conv2.i10.i.i = and i16 %17, 1
  %tobool.not.i.i = icmp eq i16 %conv2.i10.i.i, 0
  br i1 %tobool.not.i.i, label %if.else.i.i, label %if.then.i.i

if.then.i.i:                                      ; preds = %invoke.cont
  %18 = trunc i16 %16 to i8
  %19 = and i8 %18, 1
  %conv.i.i = xor i8 %19, 1
  br label %invoke.cont4

if.else.i.i:                                      ; preds = %invoke.cont
  %cmp.i.i3.i = icmp slt i16 %17, 0
  %fLength.i5.i = getelementptr inbounds i8, ptr %ref.tmp2, i64 12
  %20 = load i32, ptr %fLength.i5.i, align 4
  %21 = ashr i16 %17, 5
  %shr.i.i4.i = sext i16 %21 to i32
  %cond.i6.i = select i1 %cmp.i.i3.i, i32 %20, i32 %shr.i.i4.i
  %cmp.i.i.i19 = icmp slt i16 %16, 0
  %fLength.i.i = getelementptr inbounds i8, ptr %ref.tmp, i64 12
  %22 = load i32, ptr %fLength.i.i, align 4
  %23 = ashr i16 %16, 5
  %shr.i.i.i = sext i16 %23 to i32
  %cond.i.i = select i1 %cmp.i.i.i19, i32 %22, i32 %shr.i.i.i
  %spec.select.i.i = call i32 @llvm.smin.i32(i32 %cond.i6.i, i32 0)
  %cmp5.i.i.i = icmp slt i32 %cond.i6.i, 0
  %sub.i.i.i = sub nsw i32 %cond.i6.i, %spec.select.i.i
  %spec.select9.i.i = call i32 @llvm.smin.i32(i32 %sub.i.i.i, i32 %cond.i6.i)
  %srcLength.addr.0.i.i = select i1 %cmp5.i.i.i, i32 0, i32 %spec.select9.i.i
  %24 = and i16 %17, 2
  %tobool.not.i.i.i = icmp eq i16 %24, 0
  %fBuffer.i.i.i = getelementptr inbounds i8, ptr %ref.tmp2, i64 10
  %fArray.i.i.i = getelementptr inbounds i8, ptr %ref.tmp2, i64 24
  %25 = load ptr, ptr %fArray.i.i.i, align 8
  %cond.i.i.i = select i1 %tobool.not.i.i.i, ptr %25, ptr %fBuffer.i.i.i
  %call5.i.i20 = invoke noundef signext i8 @_ZNK6icu_7513UnicodeString9doCompareEiiPKDsii(ptr noundef nonnull align 8 dereferenceable(64) %ref.tmp, i32 noundef 0, i32 noundef %cond.i.i, ptr noundef %cond.i.i.i, i32 noundef %spec.select.i.i, i32 noundef %srcLength.addr.0.i.i)
          to label %invoke.cont4 unwind label %lpad3

invoke.cont4:                                     ; preds = %if.then.i.i, %if.else.i.i
  %retval.0.i.i = phi i8 [ %conv.i.i, %if.then.i.i ], [ %call5.i.i20, %if.else.i.i ]
  %conv = sext i8 %retval.0.i.i to i32
  call void @_ZN6icu_7513UnicodeStringD1Ev(ptr noundef nonnull align 8 dereferenceable(64) %ref.tmp2) #11
  call void @_ZN6icu_7513UnicodeStringD1Ev(ptr noundef nonnull align 8 dereferenceable(64) %ref.tmp) #11
  ret i32 %conv

lpad:                                             ; preds = %_ZNK6icu_7513UnicodeStringixEi.exit.i
  %26 = landingpad { ptr, i32 }
          cleanup
  br label %ehcleanup

lpad3:                                            ; preds = %if.else.i.i
  %27 = landingpad { ptr, i32 }
          cleanup
  call void @_ZN6icu_7513UnicodeStringD1Ev(ptr noundef nonnull align 8 dereferenceable(64) %ref.tmp2) #11
  br label %ehcleanup

ehcleanup:                                        ; preds = %lpad3, %lpad
  %.pn = phi { ptr, i32 } [ %27, %lpad3 ], [ %26, %lpad ]
  call void @_ZN6icu_7513UnicodeStringD1Ev(ptr noundef nonnull align 8 dereferenceable(64) %ref.tmp) #11
  resume { ptr, i32 } %.pn
}